; ModuleID = 'source-C-CXX/4/146.c'
source_filename = "source-C-CXX/4/146.c"
target datalayout = "e-m:e-p270:32:32-p271:32:32-p272:64:64-i64:64-f80:128-n8:16:32:64-S128"
target triple = "x86_64-pc-linux-gnu"

@.str = private unnamed_addr constant [4 x i8] c"%lf\00", align 1
@.str.1 = private unnamed_addr constant [3 x i8] c"%s\00", align 1
@.str.2 = private unnamed_addr constant [6 x i8] c"error\00", align 1
@.str.3 = private unnamed_addr constant [4 x i8] c"yes\00", align 1
@.str.4 = private unnamed_addr constant [3 x i8] c"no\00", align 1

; Function Attrs: nofree nounwind sspstrong uwtable
define dso_local i32 @main() local_unnamed_addr #0 {
  %1 = alloca double, align 8
  %2 = alloca [505 x i8], align 16
  %3 = alloca [505 x i8], align 16
  %4 = bitcast double* %1 to i8*
  call void @llvm.lifetime.start.p0i8(i64 8, i8* nonnull %4) #4
  %5 = getelementptr inbounds [505 x i8], [505 x i8]* %2, i64 0, i64 0
  call void @llvm.lifetime.start.p0i8(i64 505, i8* nonnull %5) #4
  %6 = getelementptr inbounds [505 x i8], [505 x i8]* %3, i64 0, i64 0
  call void @llvm.lifetime.start.p0i8(i64 505, i8* nonnull %6) #4
  %7 = call i32 (i8*, ...) @__isoc99_scanf(i8* getelementptr inbounds ([4 x i8], [4 x i8]* @.str, i64 0, i64 0), double* nonnull %1)
  %8 = call i32 (i8*, ...) @__isoc99_scanf(i8* getelementptr inbounds ([3 x i8], [3 x i8]* @.str.1, i64 0, i64 0), i8* nonnull %5)
  %9 = call i32 (i8*, ...) @__isoc99_scanf(i8* getelementptr inbounds ([3 x i8], [3 x i8]* @.str.1, i64 0, i64 0), i8* nonnull %6)
  %10 = call i64 @strlen(i8* noundef nonnull %5) #5
  %11 = trunc i64 %10 to i32
  %12 = call i64 @strlen(i8* noundef nonnull %6) #5
  %13 = trunc i64 %12 to i32
  %14 = icmp eq i32 %11, %13
  %15 = icmp sgt i32 %11, 0
  %16 = and i1 %14, %15
  br i1 %16, label %17, label %80

17:                                               ; preds = %0
  %18 = and i64 %10, 4294967295
  %19 = and i64 %10, 1
  %20 = icmp eq i64 %18, 1
  br i1 %20, label %47, label %21

21:                                               ; preds = %17
  %22 = sub nsw i64 %18, %19
  br label %23

23:                                               ; preds = %95, %21
  %24 = phi i64 [ 0, %21 ], [ %98, %95 ]
  %25 = phi i32 [ 0, %21 ], [ %97, %95 ]
  %26 = phi i32 [ 0, %21 ], [ %96, %95 ]
  %27 = phi i64 [ %22, %21 ], [ %99, %95 ]
  %28 = getelementptr inbounds [505 x i8], [505 x i8]* %2, i64 0, i64 %24
  %29 = load i8, i8* %28, align 2, !tbaa !5
  switch i8 %29, label %40 [
    i8 65, label %30
    i8 84, label %30
    i8 71, label %30
    i8 67, label %30
  ]

30:                                               ; preds = %23, %23, %23, %23
  %31 = getelementptr inbounds [505 x i8], [505 x i8]* %3, i64 0, i64 %24
  %32 = load i8, i8* %31, align 2, !tbaa !5
  switch i8 %32, label %38 [
    i8 65, label %33
    i8 84, label %33
    i8 71, label %33
    i8 67, label %33
  ]

33:                                               ; preds = %30, %30, %30, %30
  %34 = add nsw i32 %25, 1
  %35 = icmp eq i8 %29, %32
  %36 = zext i1 %35 to i32
  %37 = add nsw i32 %26, %36
  br label %41

38:                                               ; preds = %30
  switch i8 %29, label %40 [
    i8 65, label %39
    i8 84, label %39
    i8 71, label %39
    i8 67, label %39
  ]

39:                                               ; preds = %38, %38, %38, %38
  switch i8 %32, label %40 [
    i8 65, label %41
    i8 84, label %41
    i8 71, label %41
  ]

40:                                               ; preds = %23, %39, %38
  br label %41

41:                                               ; preds = %33, %39, %39, %39, %40
  %42 = phi i32 [ %26, %40 ], [ %37, %33 ], [ %26, %39 ], [ %26, %39 ], [ %26, %39 ]
  %43 = phi i32 [ 0, %40 ], [ %34, %33 ], [ %25, %39 ], [ %25, %39 ], [ %25, %39 ]
  %44 = or i64 %24, 1
  %45 = getelementptr inbounds [505 x i8], [505 x i8]* %2, i64 0, i64 %44
  %46 = load i8, i8* %45, align 1, !tbaa !5
  switch i8 %46, label %94 [
    i8 65, label %84
    i8 84, label %84
    i8 71, label %84
    i8 67, label %84
  ]

47:                                               ; preds = %95, %17
  %48 = phi i32 [ undef, %17 ], [ %96, %95 ]
  %49 = phi i32 [ undef, %17 ], [ %97, %95 ]
  %50 = phi i64 [ 0, %17 ], [ %98, %95 ]
  %51 = phi i32 [ 0, %17 ], [ %97, %95 ]
  %52 = phi i32 [ 0, %17 ], [ %96, %95 ]
  %53 = icmp eq i64 %19, 0
  br i1 %53, label %68, label %54

54:                                               ; preds = %47
  %55 = getelementptr inbounds [505 x i8], [505 x i8]* %2, i64 0, i64 %50
  %56 = load i8, i8* %55, align 1, !tbaa !5
  switch i8 %56, label %67 [
    i8 65, label %57
    i8 84, label %57
    i8 71, label %57
    i8 67, label %57
  ]

57:                                               ; preds = %54, %54, %54, %54
  %58 = getelementptr inbounds [505 x i8], [505 x i8]* %3, i64 0, i64 %50
  %59 = load i8, i8* %58, align 1, !tbaa !5
  switch i8 %59, label %65 [
    i8 65, label %60
    i8 84, label %60
    i8 71, label %60
    i8 67, label %60
  ]

60:                                               ; preds = %57, %57, %57, %57
  %61 = add nsw i32 %51, 1
  %62 = icmp eq i8 %56, %59
  %63 = zext i1 %62 to i32
  %64 = add nsw i32 %52, %63
  br label %68

65:                                               ; preds = %57
  switch i8 %56, label %67 [
    i8 65, label %66
    i8 84, label %66
    i8 71, label %66
    i8 67, label %66
  ]

66:                                               ; preds = %65, %65, %65, %65
  switch i8 %59, label %67 [
    i8 65, label %68
    i8 84, label %68
    i8 71, label %68
  ]

67:                                               ; preds = %66, %65, %54
  br label %68

68:                                               ; preds = %67, %66, %66, %66, %60, %47
  %69 = phi i32 [ %48, %47 ], [ %52, %67 ], [ %64, %60 ], [ %52, %66 ], [ %52, %66 ], [ %52, %66 ]
  %70 = phi i32 [ %49, %47 ], [ 0, %67 ], [ %61, %60 ], [ %51, %66 ], [ %51, %66 ], [ %51, %66 ]
  %71 = icmp eq i32 %70, 0
  br i1 %71, label %80, label %72

72:                                               ; preds = %68
  %73 = sitofp i32 %69 to double
  %74 = sitofp i32 %11 to double
  %75 = fdiv double %73, %74
  %76 = load double, double* %1, align 8, !tbaa !8
  %77 = fcmp ult double %75, %76
  br i1 %77, label %78, label %80

78:                                               ; preds = %72
  %79 = fcmp olt double %75, %76
  br i1 %79, label %80, label %83

80:                                               ; preds = %78, %72, %68, %0
  %81 = phi i8* [ getelementptr inbounds ([6 x i8], [6 x i8]* @.str.2, i64 0, i64 0), %0 ], [ getelementptr inbounds ([6 x i8], [6 x i8]* @.str.2, i64 0, i64 0), %68 ], [ getelementptr inbounds ([4 x i8], [4 x i8]* @.str.3, i64 0, i64 0), %72 ], [ getelementptr inbounds ([3 x i8], [3 x i8]* @.str.4, i64 0, i64 0), %78 ]
  %82 = call i32 (i8*, ...) @printf(i8* nonnull dereferenceable(1) %81)
  br label %83

83:                                               ; preds = %80, %78
  call void @llvm.lifetime.end.p0i8(i64 505, i8* nonnull %6) #4
  call void @llvm.lifetime.end.p0i8(i64 505, i8* nonnull %5) #4
  call void @llvm.lifetime.end.p0i8(i64 8, i8* nonnull %4) #4
  ret i32 0

84:                                               ; preds = %41, %41, %41, %41
  %85 = getelementptr inbounds [505 x i8], [505 x i8]* %3, i64 0, i64 %44
  %86 = load i8, i8* %85, align 1, !tbaa !5
  switch i8 %86, label %92 [
    i8 65, label %87
    i8 84, label %87
    i8 71, label %87
    i8 67, label %87
  ]

87:                                               ; preds = %84, %84, %84, %84
  %88 = add nsw i32 %43, 1
  %89 = icmp eq i8 %46, %86
  %90 = zext i1 %89 to i32
  %91 = add nsw i32 %42, %90
  br label %95

92:                                               ; preds = %84
  switch i8 %46, label %94 [
    i8 65, label %93
    i8 84, label %93
    i8 71, label %93
    i8 67, label %93
  ]

93:                                               ; preds = %92, %92, %92, %92
  switch i8 %86, label %94 [
    i8 65, label %95
    i8 84, label %95
    i8 71, label %95
  ]

94:                                               ; preds = %93, %92, %41
  br label %95

95:                                               ; preds = %94, %93, %93, %93, %87
  %96 = phi i32 [ %42, %94 ], [ %91, %87 ], [ %42, %93 ], [ %42, %93 ], [ %42, %93 ]
  %97 = phi i32 [ 0, %94 ], [ %88, %87 ], [ %43, %93 ], [ %43, %93 ], [ %43, %93 ]
  %98 = add nuw nsw i64 %24, 2
  %99 = add i64 %27, -2
  %100 = icmp eq i64 %99, 0
  br i1 %100, label %47, label %23, !llvm.loop !10
}

; Function Attrs: argmemonly mustprogress nofree nosync nounwind willreturn
declare void @llvm.lifetime.start.p0i8(i64 immarg, i8* nocapture) #1

; Function Attrs: nofree nounwind
declare noundef i32 @__isoc99_scanf(i8* nocapture noundef readonly, ...) local_unnamed_addr #2

; Function Attrs: argmemonly mustprogress nofree nounwind readonly willreturn
declare i64 @strlen(i8* nocapture) local_unnamed_addr #3

; Function Attrs: nofree nounwind
declare noundef i32 @printf(i8* nocapture noundef readonly, ...) local_unnamed_addr #2

; Function Attrs: argmemonly mustprogress nofree nosync nounwind willreturn
declare void @llvm.lifetime.end.p0i8(i64 immarg, i8* nocapture) #1


!llvm.module.flags = !{!0, !1, !2, !3}
!llvm.ident = !{!4}

!0 = !{i32 1, !"wchar_size", i32 4}
!1 = !{i32 7, !"PIC Level", i32 2}
!2 = !{i32 7, !"PIE Level", i32 2}
!3 = !{i32 7, !"uwtable", i32 1}
!4 = !{!"clang version 13.0.0"}
!5 = !{!6, !6, i64 0}
!6 = !{!"omnipotent char", !7, i64 0}
!7 = !{!"Simple C/C++ TBAA"}
!8 = !{!9, !9, i64 0}
!9 = !{!"double", !6, i64 0}
!10 = distinct !{!10, !11}
!11 = !{!"llvm.loop.mustprogress"}
